target datalayout = "e-m:e-p270:32:32-p271:32:32-p272:64:64-i64:64-i128:128-f80:128-n8:16:32:64-S128"
target triple = "x86_64-pc-linux-gnu"

%"class.ncnn::Mat" = type { ptr, ptr, i64, i32, ptr, i32, i32, i32, i32, i32, i64 }

; Function Attrs: alwaysinline mustprogress nounwind uwtable
define internal void @_ZN4ncnnL8fastFreeEPv(ptr noundef %0) #2 {
  %2 = alloca ptr, align 8
  store ptr %0, ptr %2, align 8, !tbaa !32
  %3 = load ptr, ptr %2, align 8, !tbaa !32
  %4 = icmp ne ptr %3, null
  br i1 %4, label %5, label %7

5:                                                ; preds = %1
  %6 = load ptr, ptr %2, align 8, !tbaa !32
  call void @free(ptr noundef %6) #9
  br label %7

7:                                                ; preds = %5, %1
  ret void
}

; Function Attrs: alwaysinline mustprogress nounwind uwtable
define internal noundef ptr @_ZN4ncnnL10fastMallocEm(i64 noundef %0) #2 {
  %2 = alloca i64, align 8
  %3 = alloca ptr, align 8
  store i64 %0, ptr %2, align 8, !tbaa !24
  call void @llvm.lifetime.start.p0(i64 8, ptr %3) #9
  store ptr null, ptr %3, align 8, !tbaa !32
  %4 = load i64, ptr %2, align 8, !tbaa !24
  %5 = add i64 %4, 64
  %6 = call i32 @posix_memalign(ptr noundef %3, i64 noundef 64, i64 noundef %5) #9
  %7 = icmp ne i32 %6, 0
  br i1 %7, label %8, label %9

8:                                                ; preds = %1
  store ptr null, ptr %3, align 8, !tbaa !32
  br label %9

9:                                                ; preds = %8, %1
  %10 = load ptr, ptr %3, align 8, !tbaa !32
  call void @llvm.lifetime.end.p0(i64 8, ptr %3) #9
  ret ptr %10
}

; Function Attrs: alwaysinline mustprogress nounwind uwtable
define internal noundef i64 @_ZN4ncnnL9alignSizeEmi(i64 noundef %0, i32 noundef %1) #2 {
  %3 = alloca i64, align 8
  %4 = alloca i32, align 4
  store i64 %0, ptr %3, align 8, !tbaa !24
  store i32 %1, ptr %4, align 4, !tbaa !25
  %5 = load i64, ptr %3, align 8, !tbaa !24
  %6 = load i32, ptr %4, align 4, !tbaa !25
  %7 = sext i32 %6 to i64
  %8 = add i64 %5, %7
  %9 = sub i64 %8, 1
  %10 = load i32, ptr %4, align 4, !tbaa !25
  %11 = sub nsw i32 0, %10
  %12 = sext i32 %11 to i64
  %13 = and i64 %9, %12
  ret i64 %13
}

; Function Attrs: alwaysinline mustprogress nounwind uwtable
define linkonce_odr hidden noundef i64 @_ZNK4ncnn3Mat5totalEv(ptr noundef nonnull align 8 dereferenceable(72) %0) #2 comdat align 2 {
  %2 = alloca ptr, align 8
  store ptr %0, ptr %2, align 8, !tbaa !4
  %3 = load ptr, ptr %2, align 8
  %4 = getelementptr inbounds nuw %"class.ncnn::Mat", ptr %3, i32 0, i32 10
  %5 = load i64, ptr %4, align 8, !tbaa !22
  %6 = getelementptr inbounds nuw %"class.ncnn::Mat", ptr %3, i32 0, i32 9
  %7 = load i32, ptr %6, align 8, !tbaa !20
  %8 = sext i32 %7 to i64
  %9 = mul i64 %5, %8
  ret i64 %9
}

; Function Attrs: alwaysinline mustprogress uwtable
define linkonce_odr hidden void @_ZN4ncnn3Mat7releaseEv(ptr noundef nonnull align 8 dereferenceable(72) %0) #1 comdat align 2 {
  %2 = alloca ptr, align 8
  %3 = alloca i32, align 4
  %4 = alloca i32, align 4
  store ptr %0, ptr %2, align 8, !tbaa !4
  %5 = load ptr, ptr %2, align 8
  %6 = getelementptr inbounds nuw %"class.ncnn::Mat", ptr %5, i32 0, i32 1
  %7 = load ptr, ptr %6, align 8, !tbaa !28
  %8 = icmp ne ptr %7, null
  br i1 %8, label %9, label %32

9:                                                ; preds = %1
  %10 = getelementptr inbounds nuw %"class.ncnn::Mat", ptr %5, i32 0, i32 1
  %11 = load ptr, ptr %10, align 8, !tbaa !28
  store i32 -1, ptr %3, align 4, !tbaa !25
  %12 = load i32, ptr %3, align 4
  %13 = atomicrmw add ptr %11, i32 %12 acq_rel, align 4
  store i32 %13, ptr %4, align 4
  %14 = load i32, ptr %4, align 4, !tbaa !25
  %15 = icmp eq i32 %14, 1
  br i1 %15, label %16, label %32

16:                                               ; preds = %9
  %17 = getelementptr inbounds nuw %"class.ncnn::Mat", ptr %5, i32 0, i32 4
  %18 = load ptr, ptr %17, align 8, !tbaa !29
  %19 = icmp ne ptr %18, null
  br i1 %19, label %20, label %28

20:                                               ; preds = %16
  %21 = getelementptr inbounds nuw %"class.ncnn::Mat", ptr %5, i32 0, i32 4
  %22 = load ptr, ptr %21, align 8, !tbaa !29
  %23 = getelementptr inbounds nuw %"class.ncnn::Mat", ptr %5, i32 0, i32 0
  %24 = load ptr, ptr %23, align 8, !tbaa !23
  %25 = load ptr, ptr %22, align 8, !tbaa !30
  %26 = getelementptr inbounds ptr, ptr %25, i64 3
  %27 = load ptr, ptr %26, align 8
  call void %27(ptr noundef nonnull align 8 dereferenceable(8) %22, ptr noundef %24)
  br label %31

28:                                               ; preds = %16
  %29 = getelementptr inbounds nuw %"class.ncnn::Mat", ptr %5, i32 0, i32 0
  %30 = load ptr, ptr %29, align 8, !tbaa !23
  call void @_ZN4ncnnL8fastFreeEPv(ptr noundef %30)
  br label %31

31:                                               ; preds = %28, %20
  br label %32

32:                                               ; preds = %31, %9, %1
  %33 = getelementptr inbounds nuw %"class.ncnn::Mat", ptr %5, i32 0, i32 0
  store ptr null, ptr %33, align 8, !tbaa !23
  %34 = getelementptr inbounds nuw %"class.ncnn::Mat", ptr %5, i32 0, i32 2
  store i64 0, ptr %34, align 8, !tbaa !17
  %35 = getelementptr inbounds nuw %"class.ncnn::Mat", ptr %5, i32 0, i32 3
  store i32 0, ptr %35, align 8, !tbaa !18
  %36 = getelementptr inbounds nuw %"class.ncnn::Mat", ptr %5, i32 0, i32 5
  store i32 0, ptr %36, align 8, !tbaa !11
  %37 = getelementptr inbounds nuw %"class.ncnn::Mat", ptr %5, i32 0, i32 6
  store i32 0, ptr %37, align 4, !tbaa !16
  %38 = getelementptr inbounds nuw %"class.ncnn::Mat", ptr %5, i32 0, i32 7
  store i32 0, ptr %38, align 8, !tbaa !19
  %39 = getelementptr inbounds nuw %"class.ncnn::Mat", ptr %5, i32 0, i32 8
  store i32 0, ptr %39, align 4, !tbaa !21
  %40 = getelementptr inbounds nuw %"class.ncnn::Mat", ptr %5, i32 0, i32 9
  store i32 0, ptr %40, align 8, !tbaa !20
  %41 = getelementptr inbounds nuw %"class.ncnn::Mat", ptr %5, i32 0, i32 10
  store i64 0, ptr %41, align 8, !tbaa !22
  %42 = getelementptr inbounds nuw %"class.ncnn::Mat", ptr %5, i32 0, i32 1
  store ptr null, ptr %42, align 8, !tbaa !28
  ret void
}

; Function Attrs: mustprogress uwtable
define hidden void @_ZN4ncnn3Mat6createEiimPNS_9AllocatorE(ptr noundef nonnull align 8 dereferenceable(72) %0, i32 noundef %1, i32 noundef %2, i64 noundef %3, ptr noundef %4) #0 align 2 {
  %6 = alloca ptr, align 8
  %7 = alloca i32, align 4
  %8 = alloca i32, align 4
  %9 = alloca i64, align 8
  %10 = alloca ptr, align 8
  %11 = alloca i64, align 8
  store ptr %0, ptr %6, align 8, !tbaa !4
  store i32 %1, ptr %7, align 4, !tbaa !25
  store i32 %2, ptr %8, align 4, !tbaa !25
  store i64 %3, ptr %9, align 8, !tbaa !24
  store ptr %4, ptr %10, align 8, !tbaa !9
  %12 = load ptr, ptr %6, align 8
  %13 = getelementptr inbounds nuw %"class.ncnn::Mat", ptr %12, i32 0, i32 5
  %14 = load i32, ptr %13, align 8, !tbaa !11
  %15 = icmp eq i32 %14, 2
  br i1 %15, label %16, label %41

16:                                               ; preds = %5
  %17 = getelementptr inbounds nuw %"class.ncnn::Mat", ptr %12, i32 0, i32 6
  %18 = load i32, ptr %17, align 4, !tbaa !16
  %19 = load i32, ptr %7, align 4, !tbaa !25
  %20 = icmp eq i32 %18, %19
  br i1 %20, label %21, label %41

21:                                               ; preds = %16
  %22 = getelementptr inbounds nuw %"class.ncnn::Mat", ptr %12, i32 0, i32 7
  %23 = load i32, ptr %22, align 8, !tbaa !19
  %24 = load i32, ptr %8, align 4, !tbaa !25
  %25 = icmp eq i32 %23, %24
  br i1 %25, label %26, label %41

26:                                               ; preds = %21
  %27 = getelementptr inbounds nuw %"class.ncnn::Mat", ptr %12, i32 0, i32 2
  %28 = load i64, ptr %27, align 8, !tbaa !17
  %29 = load i64, ptr %9, align 8, !tbaa !24
  %30 = icmp eq i64 %28, %29
  br i1 %30, label %31, label %41

31:                                               ; preds = %26
  %32 = getelementptr inbounds nuw %"class.ncnn::Mat", ptr %12, i32 0, i32 3
  %33 = load i32, ptr %32, align 8, !tbaa !18
  %34 = icmp eq i32 %33, 1
  br i1 %34, label %35, label %41

35:                                               ; preds = %31
  %36 = getelementptr inbounds nuw %"class.ncnn::Mat", ptr %12, i32 0, i32 4
  %37 = load ptr, ptr %36, align 8, !tbaa !29
  %38 = load ptr, ptr %10, align 8, !tbaa !9
  %39 = icmp eq ptr %37, %38
  br i1 %39, label %40, label %41

40:                                               ; preds = %35
  br label %102

41:                                               ; preds = %35, %31, %26, %21, %16, %5
  call void @_ZN4ncnn3Mat7releaseEv(ptr noundef nonnull align 8 dereferenceable(72) %12)
  %42 = load i64, ptr %9, align 8, !tbaa !24
  %43 = getelementptr inbounds nuw %"class.ncnn::Mat", ptr %12, i32 0, i32 2
  store i64 %42, ptr %43, align 8, !tbaa !17
  %44 = getelementptr inbounds nuw %"class.ncnn::Mat", ptr %12, i32 0, i32 3
  store i32 1, ptr %44, align 8, !tbaa !18
  %45 = load ptr, ptr %10, align 8, !tbaa !9
  %46 = getelementptr inbounds nuw %"class.ncnn::Mat", ptr %12, i32 0, i32 4
  store ptr %45, ptr %46, align 8, !tbaa !29
  %47 = getelementptr inbounds nuw %"class.ncnn::Mat", ptr %12, i32 0, i32 5
  store i32 2, ptr %47, align 8, !tbaa !11
  %48 = load i32, ptr %7, align 4, !tbaa !25
  %49 = getelementptr inbounds nuw %"class.ncnn::Mat", ptr %12, i32 0, i32 6
  store i32 %48, ptr %49, align 4, !tbaa !16
  %50 = load i32, ptr %8, align 4, !tbaa !25
  %51 = getelementptr inbounds nuw %"class.ncnn::Mat", ptr %12, i32 0, i32 7
  store i32 %50, ptr %51, align 8, !tbaa !19
  %52 = getelementptr inbounds nuw %"class.ncnn::Mat", ptr %12, i32 0, i32 8
  store i32 1, ptr %52, align 4, !tbaa !21
  %53 = getelementptr inbounds nuw %"class.ncnn::Mat", ptr %12, i32 0, i32 9
  store i32 1, ptr %53, align 8, !tbaa !20
  %54 = getelementptr inbounds nuw %"class.ncnn::Mat", ptr %12, i32 0, i32 6
  %55 = load i32, ptr %54, align 4, !tbaa !16
  %56 = sext i32 %55 to i64
  %57 = getelementptr inbounds nuw %"class.ncnn::Mat", ptr %12, i32 0, i32 7
  %58 = load i32, ptr %57, align 8, !tbaa !19
  %59 = sext i32 %58 to i64
  %60 = mul i64 %56, %59
  %61 = getelementptr inbounds nuw %"class.ncnn::Mat", ptr %12, i32 0, i32 10
  store i64 %60, ptr %61, align 8, !tbaa !22
  call void @llvm.lifetime.start.p0(i64 8, ptr %11) #9
  %62 = call noundef i64 @_ZNK4ncnn3Mat5totalEv(ptr noundef nonnull align 8 dereferenceable(72) %12)
  %63 = getelementptr inbounds nuw %"class.ncnn::Mat", ptr %12, i32 0, i32 2
  %64 = load i64, ptr %63, align 8, !tbaa !17
  %65 = mul i64 %62, %64
  %66 = call noundef i64 @_ZN4ncnnL9alignSizeEmi(i64 noundef %65, i32 noundef 4)
  store i64 %66, ptr %11, align 8, !tbaa !24
  %67 = load i64, ptr %11, align 8, !tbaa !24
  %68 = icmp ugt i64 %67, 0
  br i1 %68, label %69, label %89

69:                                               ; preds = %41
  %70 = getelementptr inbounds nuw %"class.ncnn::Mat", ptr %12, i32 0, i32 4
  %71 = load ptr, ptr %70, align 8, !tbaa !29
  %72 = icmp ne ptr %71, null
  br i1 %72, label %73, label %83

73:                                               ; preds = %69
  %74 = getelementptr inbounds nuw %"class.ncnn::Mat", ptr %12, i32 0, i32 4
  %75 = load ptr, ptr %74, align 8, !tbaa !29
  %76 = load i64, ptr %11, align 8, !tbaa !24
  %77 = add i64 %76, 4
  %78 = load ptr, ptr %75, align 8, !tbaa !30
  %79 = getelementptr inbounds ptr, ptr %78, i64 2
  %80 = load ptr, ptr %79, align 8
  %81 = call noundef ptr %80(ptr noundef nonnull align 8 dereferenceable(8) %75, i64 noundef %77)
  %82 = getelementptr inbounds nuw %"class.ncnn::Mat", ptr %12, i32 0, i32 0
  store ptr %81, ptr %82, align 8, !tbaa !23
  br label %88

83:                                               ; preds = %69
  %84 = load i64, ptr %11, align 8, !tbaa !24
  %85 = add i64 %84, 4
  %86 = call noundef ptr @_ZN4ncnnL10fastMallocEm(i64 noundef %85)
  %87 = getelementptr inbounds nuw %"class.ncnn::Mat", ptr %12, i32 0, i32 0
  store ptr %86, ptr %87, align 8, !tbaa !23
  br label %88

88:                                               ; preds = %83, %73
  br label %89

89:                                               ; preds = %88, %41
  %90 = getelementptr inbounds nuw %"class.ncnn::Mat", ptr %12, i32 0, i32 0
  %91 = load ptr, ptr %90, align 8, !tbaa !23
  %92 = icmp ne ptr %91, null
  br i1 %92, label %93, label %101

93:                                               ; preds = %89
  %94 = getelementptr inbounds nuw %"class.ncnn::Mat", ptr %12, i32 0, i32 0
  %95 = load ptr, ptr %94, align 8, !tbaa !23
  %96 = load i64, ptr %11, align 8, !tbaa !24
  %97 = getelementptr inbounds nuw i8, ptr %95, i64 %96
  %98 = getelementptr inbounds nuw %"class.ncnn::Mat", ptr %12, i32 0, i32 1
  store ptr %97, ptr %98, align 8, !tbaa !28
  %99 = getelementptr inbounds nuw %"class.ncnn::Mat", ptr %12, i32 0, i32 1
  %100 = load ptr, ptr %99, align 8, !tbaa !28
  store i32 1, ptr %100, align 4, !tbaa !25
  br label %101

101:                                              ; preds = %93, %89
  call void @llvm.lifetime.end.p0(i64 8, ptr %11) #9
  br label %102

102:                                              ; preds = %101, %40
  ret void
}