; Function Attrs: mustprogress uwtable
define hidden void @_ZN4ncnn3Mat6createEiimPNS_9AllocatorE(ptr noundef nonnull align 8 captures(none) dereferenceable(72) %0, i32 noundef %1, i32 noundef %2, i64 noundef %3, ptr noundef %4) local_unnamed_addr #0 align 2 {
  %6 = alloca ptr, align 8
  %7 = getelementptr inbounds nuw i8, ptr %0, i64 40
  %8 = load i32, ptr %7, align 8, !tbaa !15
  %9 = icmp eq i32 %8, 2
  %10 = getelementptr inbounds nuw i8, ptr %0, i64 44
  %11 = load i32, ptr %10, align 4
  %12 = icmp eq i32 %11, %1
  %or.cond = select i1 %9, i1 %12, i1 false
  %13 = getelementptr inbounds nuw i8, ptr %0, i64 48
  %14 = load i32, ptr %13, align 8
  %15 = icmp eq i32 %14, %2
  %or.cond20 = select i1 %or.cond, i1 %15, i1 false
  %16 = getelementptr inbounds nuw i8, ptr %0, i64 16
  %17 = load i64, ptr %16, align 8
  %18 = icmp eq i64 %17, %3
  %or.cond23 = select i1 %or.cond20, i1 %18, i1 false
  %19 = getelementptr inbounds nuw i8, ptr %0, i64 24
  %20 = load i32, ptr %19, align 8
  %21 = icmp eq i32 %20, 1
  %or.cond26 = select i1 %or.cond23, i1 %21, i1 false
  %22 = getelementptr inbounds nuw i8, ptr %0, i64 32
  %23 = load ptr, ptr %22, align 8
  %24 = icmp eq ptr %23, %4
  %or.cond29 = select i1 %or.cond26, i1 %24, i1 false
  br i1 %or.cond29, label %thread-pre-split.thread, label %25

25:                                               ; preds = %5
  %26 = getelementptr inbounds nuw i8, ptr %0, i64 8
  %27 = load ptr, ptr %26, align 8, !tbaa !19
  %.not.i = icmp eq ptr %27, null
  br i1 %.not.i, label %_ZN4ncnn3Mat7releaseEv.exit, label %28

28:                                               ; preds = %25
  %29 = atomicrmw add ptr %27, i32 -1 acq_rel, align 4
  %30 = icmp eq i32 %29, 1
  br i1 %30, label %31, label %_ZN4ncnn3Mat7releaseEv.exit

31:                                               ; preds = %28
  %32 = load ptr, ptr %22, align 8, !tbaa !30
  %.not3.i = icmp eq ptr %32, null
  %33 = load ptr, ptr %0, align 8, !tbaa !4
  br i1 %.not3.i, label %38, label %34

34:                                               ; preds = %31
  %35 = load ptr, ptr %32, align 8, !tbaa !31
  %36 = getelementptr inbounds nuw i8, ptr %35, i64 24
  %37 = load ptr, ptr %36, align 8
  tail call void %37(ptr noundef nonnull align 8 dereferenceable(8) %32, ptr noundef %33)
  br label %_ZN4ncnn3Mat7releaseEv.exit

38:                                               ; preds = %31
  %.not.i30 = icmp eq ptr %33, null
  br i1 %.not.i30, label %_ZN4ncnn3Mat7releaseEv.exit, label %39

39:                                               ; preds = %38
  tail call void @free(ptr noundef nonnull %33) #12
  br label %_ZN4ncnn3Mat7releaseEv.exit

_ZN4ncnn3Mat7releaseEv.exit:                      ; preds = %39, %38, %25, %28, %34
  %40 = getelementptr inbounds nuw i8, ptr %0, i64 52
  %41 = getelementptr inbounds nuw i8, ptr %0, i64 56
  %42 = getelementptr inbounds nuw i8, ptr %0, i64 64
  tail call void @llvm.memset.p0.i64(ptr noundef nonnull align 8 dereferenceable(16) %0, i8 0, i64 16, i1 false)
  store i64 %3, ptr %16, align 8, !tbaa !17
  store i32 1, ptr %19, align 8, !tbaa !18
  store ptr %4, ptr %22, align 8, !tbaa !30
  store i32 2, ptr %7, align 8, !tbaa !15
  store i32 %1, ptr %10, align 4, !tbaa !16
  store i32 %2, ptr %13, align 8, !tbaa !20
  store i32 1, ptr %40, align 4, !tbaa !21
  store i32 1, ptr %41, align 8, !tbaa !14
  %43 = sext i32 %1 to i64
  %44 = sext i32 %2 to i64
  %45 = mul nsw i64 %44, %43
  store i64 %45, ptr %42, align 8, !tbaa !13
  %46 = mul i64 %45, %3
  %47 = add i64 %46, 3
  %48 = and i64 %47, -4
  %.not = icmp eq i64 %48, 0
  br i1 %.not, label %thread-pre-split.thread, label %49

49:                                               ; preds = %_ZN4ncnn3Mat7releaseEv.exit
  %.not14 = icmp eq ptr %4, null
  br i1 %.not14, label %_ZN4ncnnL10fastMallocEm.exit, label %50

50:                                               ; preds = %49
  %51 = add i64 %48, 4
  %52 = load ptr, ptr %4, align 8, !tbaa !31
  %53 = getelementptr inbounds nuw i8, ptr %52, i64 16
  %54 = load ptr, ptr %53, align 8
  %55 = tail call noundef ptr %54(ptr noundef nonnull align 8 dereferenceable(8) %4, i64 noundef %51)
  br label %thread-pre-split

_ZN4ncnnL10fastMallocEm.exit:                     ; preds = %49
  call void @llvm.lifetime.start.p0(i64 8, ptr nonnull %6) #12
  store ptr null, ptr %6, align 8, !tbaa !33
  %56 = add i64 %48, 68
  %57 = call i32 @posix_memalign(ptr noundef nonnull %6, i64 noundef 64, i64 noundef %56) #12
  %.not.i31 = icmp eq i32 %57, 0
  %.pre = load ptr, ptr %6, align 8
  %58 = select i1 %.not.i31, ptr %.pre, ptr null
  call void @llvm.lifetime.end.p0(i64 8, ptr nonnull %6) #12
  br label %thread-pre-split

thread-pre-split:                                 ; preds = %50, %_ZN4ncnnL10fastMallocEm.exit
  %.sink = phi ptr [ %55, %50 ], [ %58, %_ZN4ncnnL10fastMallocEm.exit ]
  store ptr %.sink, ptr %0, align 8, !tbaa !4
  %.not15 = icmp eq ptr %.sink, null
  br i1 %.not15, label %thread-pre-split.thread, label %59

59:                                               ; preds = %thread-pre-split
  %60 = getelementptr inbounds nuw i8, ptr %.sink, i64 %48
  store ptr %60, ptr %26, align 8, !tbaa !19
  store i32 1, ptr %60, align 4, !tbaa !34
  br label %thread-pre-split.thread

thread-pre-split.thread:                          ; preds = %_ZN4ncnn3Mat7releaseEv.exit, %thread-pre-split, %59, %5
  ret void
}